; Function Attrs: nounwind uwtable
define internal range(i32 -12, 1) i32 @resize_samples_fltp(ptr noundef %0, i64 noundef %1) #1 {
  %3 = load i64, ptr %0, align 8, !tbaa !46
  %4 = icmp eq i64 %1, %3
  br i1 %4, label %59, label %5

5:                                                ; preds = %2
  %6 = icmp eq i64 %1, 0
  %7 = getelementptr inbounds nuw i8, ptr %0, i64 32
  br i1 %6, label %8, label %9

8:                                                ; preds = %5
  tail call void @av_freep(ptr noundef nonnull %7) #10
  tail call void @llvm.memset.p0.i64(ptr noundef nonnull align 8 dereferenceable(28) %0, i8 0, i64 28, i1 false)
  br label %59

9:                                                ; preds = %5
  %10 = getelementptr inbounds nuw i8, ptr %0, i64 24
  %11 = load ptr, ptr %7, align 8, !tbaa !75
  %12 = shl i64 %1, 2
  %13 = tail call ptr @av_fast_realloc(ptr noundef %11, ptr noundef nonnull %10, i64 noundef %12) #10
  %.not = icmp eq ptr %13, null
  br i1 %.not, label %59, label %14

14:                                               ; preds = %9
  %15 = load i64, ptr %0, align 8, !tbaa !46
  %16 = icmp slt i64 %1, %15
  br i1 %16, label %17, label %39

17:                                               ; preds = %14
  %18 = getelementptr inbounds nuw i8, ptr %0, i64 16
  %19 = load i64, ptr %18, align 8, !tbaa !80
  %20 = icmp ugt i64 %19, %1
  br i1 %20, label %21, label %26

21:                                               ; preds = %17
  %22 = sub nuw i64 %19, %1
  store i64 %22, ptr %18, align 8, !tbaa !80
  %23 = getelementptr inbounds float, ptr %13, i64 %1
  %24 = shl i64 %22, 2
  tail call void @llvm.memmove.p0.p0.i64(ptr nonnull align 4 %13, ptr nonnull align 4 %23, i64 %24, i1 false)
  %25 = getelementptr inbounds nuw i8, ptr %0, i64 8
  store i64 %1, ptr %25, align 8, !tbaa !79
  br label %58

26:                                               ; preds = %17
  %27 = getelementptr inbounds nuw i8, ptr %0, i64 8
  %28 = load i64, ptr %27, align 8, !tbaa !79
  %29 = icmp ugt i64 %28, %19
  br i1 %29, label %30, label %58

30:                                               ; preds = %26
  %31 = getelementptr float, ptr %13, i64 %19
  %32 = sub nsw i64 %15, %1
  %33 = getelementptr float, ptr %31, i64 %32
  %34 = sub i64 %1, %19
  %35 = shl i64 %34, 2
  tail call void @llvm.memmove.p0.p0.i64(ptr nonnull align 4 %31, ptr align 4 %33, i64 %35, i1 false)
  %36 = load i64, ptr %0, align 8, !tbaa !46
  %.neg = sub i64 %1, %36
  %37 = load i64, ptr %27, align 8, !tbaa !79
  %38 = add i64 %.neg, %37
  store i64 %38, ptr %27, align 8, !tbaa !79
  br label %58

39:                                               ; preds = %14
  %40 = getelementptr inbounds nuw i8, ptr %0, i64 8
  %41 = load i64, ptr %40, align 8, !tbaa !79
  %.not68 = icmp ult i64 %41, %15
  br i1 %.not68, label %50, label %42

42:                                               ; preds = %39
  %43 = getelementptr inbounds nuw i8, ptr %0, i64 16
  %44 = load i64, ptr %43, align 8, !tbaa !80
  %45 = sub i64 %15, %44
  %46 = shl i64 %45, 2
  %47 = sub nsw i64 %1, %15
  %48 = getelementptr float, ptr %13, i64 %44
  %49 = getelementptr float, ptr %48, i64 %47
  tail call void @llvm.memmove.p0.p0.i64(ptr align 4 %49, ptr nonnull align 4 %48, i64 %46, i1 false)
  %.pre = load i64, ptr %0, align 8, !tbaa !46
  %.pre71 = sub nsw i64 %1, %.pre
  br label %53

50:                                               ; preds = %39
  %51 = sub i64 %1, %15
  %52 = add i64 %51, %41
  br label %53

53:                                               ; preds = %50, %42
  %.pre-phi = phi i64 [ %51, %50 ], [ %.pre71, %42 ]
  %storemerge = phi i64 [ %52, %50 ], [ %1, %42 ]
  store i64 %storemerge, ptr %40, align 8, !tbaa !79
  %54 = shl i64 %.pre-phi, 2
  %55 = getelementptr inbounds nuw i8, ptr %0, i64 16
  %56 = load i64, ptr %55, align 8, !tbaa !80
  %57 = getelementptr inbounds nuw float, ptr %13, i64 %56
  tail call void @llvm.memset.p0.i64(ptr nonnull align 4 %57, i8 0, i64 %54, i1 false)
  br label %58

58:                                               ; preds = %21, %30, %26, %53
  store i64 %1, ptr %0, align 8, !tbaa !46
  store ptr %13, ptr %7, align 8, !tbaa !75
  br label %59

59:                                               ; preds = %9, %2, %58, %8
  %.0 = phi i32 [ 0, %8 ], [ 0, %58 ], [ 0, %2 ], [ -12, %9 ]
  ret i32 %.0
}